target datalayout = "e-m:e-p270:32:32-p271:32:32-p272:64:64-i64:64-i128:128-f80:128-n8:16:32:64-S128"
target triple = "x86_64-pc-linux-gnu"

@.str = private unnamed_addr constant [57 x i8] c"../openssl/providers/implementations/digests/sha2_prov.c\00", align 1

; Function Attrs: nounwind uwtable
define internal ptr @sha512_224_dupctx(ptr noundef %0) #0 {
  %2 = alloca ptr, align 8
  %3 = alloca ptr, align 8
  %4 = alloca ptr, align 8
  store ptr %0, ptr %2, align 8, !tbaa !3
  call void @llvm.lifetime.start.p0(i64 8, ptr %3) #5
  %5 = load ptr, ptr %2, align 8, !tbaa !3
  store ptr %5, ptr %3, align 8, !tbaa !28
  call void @llvm.lifetime.start.p0(i64 8, ptr %4) #5
  %6 = call i32 @ossl_prov_is_running()
  %7 = icmp ne i32 %6, 0
  br i1 %7, label %8, label %10

8:                                                ; preds = %1
  %9 = call noalias ptr @CRYPTO_malloc(i64 noundef 216, ptr noundef @.str, i32 noundef 93)
  br label %11

10:                                               ; preds = %1
  br label %11

11:                                               ; preds = %10, %8
  %12 = phi ptr [ %9, %8 ], [ null, %10 ]
  store ptr %12, ptr %4, align 8, !tbaa !28
  %13 = load ptr, ptr %4, align 8, !tbaa !28
  %14 = icmp ne ptr %13, null
  br i1 %14, label %15, label %18

15:                                               ; preds = %11
  %16 = load ptr, ptr %4, align 8, !tbaa !28
  %17 = load ptr, ptr %3, align 8, !tbaa !28
  call void @llvm.memcpy.p0.p0.i64(ptr align 8 %16, ptr align 8 %17, i64 216, i1 false), !tbaa.struct !30
  br label %18

18:                                               ; preds = %15, %11
  %19 = load ptr, ptr %4, align 8, !tbaa !28
  call void @llvm.lifetime.end.p0(i64 8, ptr %4) #5
  call void @llvm.lifetime.end.p0(i64 8, ptr %3) #5
  ret ptr %19
}